; Function Attrs: nofree norecurse nosync nounwind memory(argmem: readwrite) uwtable
define internal noundef i32 @customFilter(ptr noundef captures(none) %0, i64 %1, i64 %2, i64 %3, i64 %4, i32 %5, i32 %6, ptr readnone captures(none) %7) #6 {
  %.sroa.16.8.extract.trunc = trunc i64 %2 to i32
  %.sroa.3.8.extract.shift = lshr i64 %2, 32
  %.sroa.3.8.extract.trunc = trunc nuw i64 %.sroa.3.8.extract.shift to i32
  %9 = mul nsw i32 %.sroa.3.8.extract.trunc, %.sroa.16.8.extract.trunc
  %10 = icmp sgt i32 %9, 0
  br i1 %10, label %.lr.ph.preheader, label %._crit_edge

.lr.ph.preheader:                                 ; preds = %8
  %wide.trip.count = zext nneg i32 %9 to i64
  br label %.lr.ph

.lr.ph:                                           ; preds = %.lr.ph.preheader, %.lr.ph
  %indvars.iv = phi i64 [ 0, %.lr.ph.preheader ], [ %indvars.iv.next, %.lr.ph ]
  %11 = getelementptr inbounds nuw i16, ptr %0, i64 %indvars.iv
  %12 = load i16, ptr %11, align 2
  %13 = sub i16 0, %12
  store i16 %13, ptr %11, align 2
  %indvars.iv.next = add nuw nsw i64 %indvars.iv, 1
  %exitcond.not = icmp eq i64 %indvars.iv.next, %wide.trip.count
  br i1 %exitcond.not, label %._crit_edge, label %.lr.ph, !llvm.loop !9

._crit_edge:                                      ; preds = %.lr.ph, %8
  ret i32 0
}